ccopy_reg
_reconstructor
p0
(csensor_layer.srv._MolarSensorInput
MolarSensorInputRequest
p1
c__builtin__
object
p2
Ntp3
Rp4
(lp5
I1526124489
aS'{"scene_id": "081d2487-f7b3-4792-bd6c-0a14ed89e54c"}'
p6
ag0
(csensor_msgs.msg._PointCloud2
PointCloud2
p7
g2
Ntp8
Rp9
(lp10
g0
(cstd_msgs.msg._Header
Header
p11
g2
Ntp12
Rp13
(lp14
I0
ag0
(cgenpy.rostime
Time
p15
g2
Ntp16
Rp17
(lp18
I0
aI0
abaS''
p19
abaI0
aI0
a(lp20
aI00
aI0
aI0
ag19
aI00
abag0
(csensor_msgs.msg._Image
Image
p21
g2
Ntp22
Rp23
(lp24
g0
(g11
g2
Ntp25
Rp26
(lp27
I0
ag0
(g15
g2
Ntp28
Rp29
(lp30
I0
aI0
abag19
abaI0
aI0
ag19
aI0
aI0
ag19
abag0
(g21
g2
Ntp31
Rp32
(lp33
g0
(g11
g2
Ntp34
Rp35
(lp36
I0
ag0
(g15
g2
Ntp37
Rp38
(lp39
I0
aI0
abag19
abaI0
aI0
ag19
aI0
aI0
ag19
abag0
(csensor_msgs.msg._CameraInfo
CameraInfo
p40
g2
Ntp41
Rp42
(lp43
g0
(g11
g2
Ntp44
Rp45
(lp46
I0
ag0
(g15
g2
Ntp47
Rp48
(lp49
I0
aI0
abag19
abaI0
aI0
ag19
a(ta(F0.0
F0.0
F0.0
F0.0
F0.0
F0.0
F0.0
F0.0
F0.0
tp50
a(F0.0
F0.0
F0.0
F0.0
F0.0
F0.0
F0.0
F0.0
F0.0
tp51
a(F0.0
F0.0
F0.0
F0.0
F0.0
F0.0
F0.0
F0.0
F0.0
F0.0
F0.0
F0.0
tp52
aI0
aI0
ag0
(csensor_msgs.msg._RegionOfInterest
RegionOfInterest
p53
g2
Ntp54
Rp55
(lp56
I0
aI0
aI0
aI0
aI00
ababag0
(cgeometry_msgs.msg._Pose
Pose
p57
g2
Ntp58
Rp59
(lp60
g0
(cgeometry_msgs.msg._Point
Point
p61
g2
Ntp62
Rp63
(lp64
F0.0
aF0.0
aF0.0
abag0
(cgeometry_msgs.msg._Quaternion
Quaternion
p65
g2
Ntp66
Rp67
(lp68
F0.0
aF0.0
aF0.0
aF0.0
ababag0
(ctf2_msgs.msg._TFMessage
TFMessage
p69
g2
Ntp70
Rp71
(lp72
(lp73
abab.